target datalayout = "e-m:e-p270:32:32-p271:32:32-p272:64:64-i64:64-i128:128-f80:128-n8:16:32:64-S128"
target triple = "x86_64-pc-linux-gnu"

@proto_register_norm.ett = internal global [6 x ptr] [ptr @ett_main, ptr @ett_hdrext, ptr @ett_flags, ptr @ett_streampayload, ptr @ett_congestioncontrol, ptr @ett_nackdata], align 16
@.str.108 = private unnamed_addr constant [52 x i8] c"Negative-acknowledgment Oriented Reliable Multicast\00", align 1
@.str.109 = private unnamed_addr constant [5 x i8] c"NORM\00", align 1
@.str.110 = private unnamed_addr constant [5 x i8] c"norm\00", align 1
@proto_rmt_norm = internal global i32 0, align 4
@norm_handle = internal global ptr null, align 8
@.str.111 = private unnamed_addr constant [15 x i8] c"heuristic_norm\00", align 1

; Function Attrs: null_pointer_is_valid sspstrong uwtable
define hidden void @proto_register_norm() #0 {
  %1 = alloca ptr, align 8
  %2 = alloca ptr, align 8
  call void @llvm.lifetime.start.p0(i64 8, ptr %1) #8
  call void @llvm.lifetime.start.p0(i64 8, ptr %2) #8
  %3 = call i32 @proto_register_protocol(ptr noundef @.str.108, ptr noundef @.str.109, ptr noundef @.str.110)
  store i32 %3, ptr @proto_rmt_norm, align 4
  %4 = load i32, ptr @proto_rmt_norm, align 4
  call void @proto_register_field_array(i32 noundef %4, ptr noundef @proto_register_norm.hf, i32 noundef 53)
  call void @proto_register_subtree_array(ptr noundef @proto_register_norm.ett, i32 noundef 6)
  %5 = load i32, ptr @proto_rmt_norm, align 4
  %6 = call ptr @expert_register_protocol(i32 noundef %5)
  store ptr %6, ptr %2, align 8
  %7 = load ptr, ptr %2, align 8
  call void @expert_register_field_array(ptr noundef %7, ptr noundef @proto_register_norm.ei, i32 noundef 1)
  %8 = load i32, ptr @proto_rmt_norm, align 4
  %9 = call ptr @register_dissector(ptr noundef @.str.110, ptr noundef @dissect_norm, i32 noundef %8)
  store ptr %9, ptr @norm_handle, align 8
  %10 = load i32, ptr @proto_rmt_norm, align 4
  %11 = call ptr @prefs_register_protocol(i32 noundef %10, ptr noundef null)
  store ptr %11, ptr %1, align 8
  %12 = load ptr, ptr %1, align 8
  call void @prefs_register_obsolete_preference(ptr noundef %12, ptr noundef @.str.111)
  call void @llvm.lifetime.end.p0(i64 8, ptr %2) #8
  call void @llvm.lifetime.end.p0(i64 8, ptr %1) #8
  ret void
}