; Function Attrs: null_pointer_is_valid sspstrong uwtable
define hidden void @proto_register_norm() local_unnamed_addr #0 {
  %1 = tail call i32 @proto_register_protocol(ptr noundef nonnull @.str.108, ptr noundef nonnull @.str.109, ptr noundef nonnull @.str.110)
  store i32 %1, ptr @proto_rmt_norm, align 4
  tail call void @proto_register_field_array(i32 noundef %1, ptr noundef nonnull @proto_register_norm.hf, i32 noundef 53)
  tail call void @proto_register_subtree_array(ptr noundef nonnull @proto_register_norm.ett, i32 noundef 6)
  %2 = load i32, ptr @proto_rmt_norm, align 4
  %3 = tail call ptr @expert_register_protocol(i32 noundef %2)
  tail call void @expert_register_field_array(ptr noundef %3, ptr noundef nonnull @proto_register_norm.ei, i32 noundef 1)
  %4 = load i32, ptr @proto_rmt_norm, align 4
  %5 = tail call ptr @register_dissector(ptr noundef nonnull @.str.110, ptr noundef nonnull @dissect_norm, i32 noundef %4)
  store ptr %5, ptr @norm_handle, align 8
  %6 = load i32, ptr @proto_rmt_norm, align 4
  %7 = tail call ptr @prefs_register_protocol(i32 noundef %6, ptr noundef null)
  tail call void @prefs_register_obsolete_preference(ptr noundef %7, ptr noundef nonnull @.str.111)
  ret void
}